; Function Attrs: mustprogress uwtable
define void @_ZN3net12PacingSender17OnCongestionEventEbmRKSt6vectorISt4pairImtESaIS3_EES7_(ptr noundef nonnull align 8 captures(none) dereferenceable(41) %0, i1 noundef zeroext %1, i64 noundef %2, ptr noundef nonnull align 8 dereferenceable(24) %3, ptr noundef nonnull align 8 dereferenceable(24) %4) local_unnamed_addr #0 align 2 {
  %6 = load ptr, ptr %4, align 8, !tbaa !15
  %7 = getelementptr inbounds nuw i8, ptr %4, i64 8
  %8 = load ptr, ptr %7, align 8, !tbaa !15
  %9 = icmp eq ptr %6, %8
  br i1 %9, label %12, label %10

10:                                               ; preds = %5
  %11 = getelementptr inbounds nuw i8, ptr %0, i64 16
  store i32 0, ptr %11, align 8, !tbaa !14
  br label %12

12:                                               ; preds = %10, %5
  %13 = load ptr, ptr %0, align 8, !tbaa !3
  %14 = load ptr, ptr %13, align 8, !tbaa !17
  %15 = getelementptr inbounds nuw i8, ptr %14, i64 32
  %16 = load ptr, ptr %15, align 8
  tail call void %16(ptr noundef nonnull align 8 dereferenceable(8) %13, i1 noundef zeroext %1, i64 noundef %2, ptr noundef nonnull align 8 dereferenceable(24) %3, ptr noundef nonnull align 8 dereferenceable(24) %4)
  ret void
}